; Function Attrs: null_pointer_is_valid sspstrong uwtable
define internal noundef zeroext i1 @peekclassic_seek_read_v56(ptr noundef readonly captures(none) %0, i64 noundef %1, ptr noundef %2, ptr noundef %3, ptr noundef %4) #0 {
  %6 = getelementptr inbounds nuw i8, ptr %0, i64 8
  %7 = load ptr, ptr %6, align 8
  %8 = tail call i64 @file_seek(ptr noundef %7, i64 noundef %1, i32 noundef 0, ptr noundef %3)
  %9 = icmp eq i64 %8, -1
  br i1 %9, label %17, label %10

10:                                               ; preds = %5
  %11 = load ptr, ptr %6, align 8
  %12 = tail call fastcc zeroext i1 @peekclassic_read_packet_v56(ptr noundef %0, ptr noundef %11, ptr noundef %2, ptr noundef %3, ptr noundef %4)
  br i1 %12, label %17, label %13

13:                                               ; preds = %10
  %14 = load i32, ptr %3, align 4
  %15 = icmp eq i32 %14, 0
  br i1 %15, label %16, label %17

16:                                               ; preds = %13
  store i32 -12, ptr %3, align 4
  br label %17

17:                                               ; preds = %10, %13, %16, %5
  %.0 = phi i1 [ false, %5 ], [ false, %16 ], [ false, %13 ], [ true, %10 ]
  ret i1 %.0
}